target datalayout = "e-m:e-p270:32:32-p271:32:32-p272:64:64-i64:64-i128:128-f80:128-n8:16:32:64-S128"
target triple = "x86_64-unknown-linux-gnu"

%"class.std::vector" = type { %"struct.std::_Vector_base" }
%"struct.std::_Vector_base" = type { %"struct.std::_Vector_base<double, std::allocator<double>>::_Vector_impl" }
%"struct.std::_Vector_base<double, std::allocator<double>>::_Vector_impl" = type { %"struct.std::_Vector_base<double, std::allocator<double>>::_Vector_impl_data" }
%"struct.std::_Vector_base<double, std::allocator<double>>::_Vector_impl_data" = type { ptr, ptr, ptr }
%"class.QuantLib::MultiStepSwap" = type { %"class.QuantLib::MultiProductMultiStep", %"class.std::vector", %"class.std::vector", %"class.std::vector", double, double, i64, i64 }
%"class.QuantLib::MultiProductMultiStep" = type { %"class.QuantLib::MarketModelMultiProduct", %"class.std::vector", %"class.QuantLib::EvolutionDescription" }
%"class.QuantLib::MarketModelMultiProduct" = type { ptr }
%"class.QuantLib::EvolutionDescription" = type { i64, %"class.std::vector", %"class.std::vector", %"class.std::vector.0", %"class.std::vector", %"class.std::vector.5" }
%"class.std::vector.0" = type { %"struct.std::_Vector_base.1" }
%"struct.std::_Vector_base.1" = type { %"struct.std::_Vector_base<std::pair<unsigned long, unsigned long>, std::allocator<std::pair<unsigned long, unsigned long>>>::_Vector_impl" }
%"struct.std::_Vector_base<std::pair<unsigned long, unsigned long>, std::allocator<std::pair<unsigned long, unsigned long>>>::_Vector_impl" = type { %"struct.std::_Vector_base<std::pair<unsigned long, unsigned long>, std::allocator<std::pair<unsigned long, unsigned long>>>::_Vector_impl_data" }
%"struct.std::_Vector_base<std::pair<unsigned long, unsigned long>, std::allocator<std::pair<unsigned long, unsigned long>>>::_Vector_impl_data" = type { ptr, ptr, ptr }
%"class.std::vector.5" = type { %"struct.std::_Vector_base.6" }
%"struct.std::_Vector_base.6" = type { %"struct.std::_Vector_base<unsigned long, std::allocator<unsigned long>>::_Vector_impl" }
%"struct.std::_Vector_base<unsigned long, std::allocator<unsigned long>>::_Vector_impl" = type { %"struct.std::_Vector_base<unsigned long, std::allocator<unsigned long>>::_Vector_impl_data" }
%"struct.std::_Vector_base<unsigned long, std::allocator<unsigned long>>::_Vector_impl_data" = type { ptr, ptr, ptr }
%"struct.QuantLib::MarketModelMultiProduct::CashFlow" = type { i64, double }
%"struct.std::_Vector_base.11" = type { %"struct.std::_Vector_base<std::vector<QuantLib::MarketModelMultiProduct::CashFlow>, std::allocator<std::vector<QuantLib::MarketModelMultiProduct::CashFlow>>>::_Vector_impl" }
%"struct.std::_Vector_base<std::vector<QuantLib::MarketModelMultiProduct::CashFlow>, std::allocator<std::vector<QuantLib::MarketModelMultiProduct::CashFlow>>>::_Vector_impl" = type { %"struct.std::_Vector_base<std::vector<QuantLib::MarketModelMultiProduct::CashFlow>, std::allocator<std::vector<QuantLib::MarketModelMultiProduct::CashFlow>>>::_Vector_impl_data" }
%"struct.std::_Vector_base<std::vector<QuantLib::MarketModelMultiProduct::CashFlow>, std::allocator<std::vector<QuantLib::MarketModelMultiProduct::CashFlow>>>::_Vector_impl_data" = type { ptr, ptr, ptr }
%"class.std::vector.15" = type { %"struct.std::_Vector_base.16" }
%"struct.std::_Vector_base.16" = type { %"struct.std::_Vector_base<QuantLib::MarketModelMultiProduct::CashFlow, std::allocator<QuantLib::MarketModelMultiProduct::CashFlow>>::_Vector_impl" }
%"struct.std::_Vector_base<QuantLib::MarketModelMultiProduct::CashFlow, std::allocator<QuantLib::MarketModelMultiProduct::CashFlow>>::_Vector_impl" = type { %"struct.std::_Vector_base<QuantLib::MarketModelMultiProduct::CashFlow, std::allocator<QuantLib::MarketModelMultiProduct::CashFlow>>::_Vector_impl_data" }
%"struct.std::_Vector_base<QuantLib::MarketModelMultiProduct::CashFlow, std::allocator<QuantLib::MarketModelMultiProduct::CashFlow>>::_Vector_impl_data" = type { ptr, ptr, ptr }

; Function Attrs: mustprogress nounwind uwtable
define linkonce_odr noundef nonnull align 8 dereferenceable(8) ptr @_ZNSt6vectorImSaImEEixEm(ptr noundef nonnull align 8 dereferenceable(24) %this, i64 noundef %__n) #3 comdat align 2 {
entry:
  %this.addr = alloca ptr, align 8
  %__n.addr = alloca i64, align 8
  store ptr %this, ptr %this.addr, align 8, !tbaa !3
  store i64 %__n, ptr %__n.addr, align 8, !tbaa !41
  %this1 = load ptr, ptr %this.addr, align 8
  %_M_impl = getelementptr inbounds nuw %"struct.std::_Vector_base.6", ptr %this1, i32 0, i32 0
  %_M_start = getelementptr inbounds nuw %"struct.std::_Vector_base<unsigned long, std::allocator<unsigned long>>::_Vector_impl_data", ptr %_M_impl, i32 0, i32 0
  %0 = load ptr, ptr %_M_start, align 8, !tbaa !46
  %1 = load i64, ptr %__n.addr, align 8, !tbaa !41
  %add.ptr = getelementptr inbounds nuw i64, ptr %0, i64 %1
  ret ptr %add.ptr
}

; Function Attrs: mustprogress nounwind uwtable
define linkonce_odr noundef nonnull align 8 dereferenceable(8) ptr @_ZNSt6vectorIdSaIdEEixEm(ptr noundef nonnull align 8 dereferenceable(24) %this, i64 noundef %__n) #3 comdat align 2 {
entry:
  %this.addr = alloca ptr, align 8
  %__n.addr = alloca i64, align 8
  store ptr %this, ptr %this.addr, align 8, !tbaa !3
  store i64 %__n, ptr %__n.addr, align 8, !tbaa !41
  %this1 = load ptr, ptr %this.addr, align 8
  %_M_impl = getelementptr inbounds nuw %"struct.std::_Vector_base", ptr %this1, i32 0, i32 0
  %_M_start = getelementptr inbounds nuw %"struct.std::_Vector_base<double, std::allocator<double>>::_Vector_impl_data", ptr %_M_impl, i32 0, i32 0
  %0 = load ptr, ptr %_M_start, align 8, !tbaa !7
  %1 = load i64, ptr %__n.addr, align 8, !tbaa !41
  %add.ptr = getelementptr inbounds nuw double, ptr %0, i64 %1
  ret ptr %add.ptr
}

; Function Attrs: mustprogress nounwind uwtable
define linkonce_odr noundef nonnull align 8 dereferenceable(16) ptr @_ZNSt6vectorIN8QuantLib23MarketModelMultiProduct8CashFlowESaIS2_EEixEm(ptr noundef nonnull align 8 dereferenceable(24) %this, i64 noundef %__n) #3 comdat align 2 {
entry:
  %this.addr = alloca ptr, align 8
  %__n.addr = alloca i64, align 8
  store ptr %this, ptr %this.addr, align 8, !tbaa !3
  store i64 %__n, ptr %__n.addr, align 8, !tbaa !41
  %this1 = load ptr, ptr %this.addr, align 8
  %_M_impl = getelementptr inbounds nuw %"struct.std::_Vector_base.16", ptr %this1, i32 0, i32 0
  %_M_start = getelementptr inbounds nuw %"struct.std::_Vector_base<QuantLib::MarketModelMultiProduct::CashFlow, std::allocator<QuantLib::MarketModelMultiProduct::CashFlow>>::_Vector_impl_data", ptr %_M_impl, i32 0, i32 0
  %0 = load ptr, ptr %_M_start, align 8, !tbaa !44
  %1 = load i64, ptr %__n.addr, align 8, !tbaa !41
  %add.ptr = getelementptr inbounds nuw %"struct.QuantLib::MarketModelMultiProduct::CashFlow", ptr %0, i64 %1
  ret ptr %add.ptr
}

; Function Attrs: mustprogress nounwind uwtable
define linkonce_odr noundef nonnull align 8 dereferenceable(24) ptr @_ZNSt6vectorIS_IN8QuantLib23MarketModelMultiProduct8CashFlowESaIS2_EESaIS4_EEixEm(ptr noundef nonnull align 8 dereferenceable(24) %this, i64 noundef %__n) #3 comdat align 2 {
entry:
  %this.addr = alloca ptr, align 8
  %__n.addr = alloca i64, align 8
  store ptr %this, ptr %this.addr, align 8, !tbaa !3
  store i64 %__n, ptr %__n.addr, align 8, !tbaa !41
  %this1 = load ptr, ptr %this.addr, align 8
  %_M_impl = getelementptr inbounds nuw %"struct.std::_Vector_base.11", ptr %this1, i32 0, i32 0
  %_M_start = getelementptr inbounds nuw %"struct.std::_Vector_base<std::vector<QuantLib::MarketModelMultiProduct::CashFlow>, std::allocator<std::vector<QuantLib::MarketModelMultiProduct::CashFlow>>>::_Vector_impl_data", ptr %_M_impl, i32 0, i32 0
  %0 = load ptr, ptr %_M_start, align 8, !tbaa !42
  %1 = load i64, ptr %__n.addr, align 8, !tbaa !41
  %add.ptr = getelementptr inbounds nuw %"class.std::vector.15", ptr %0, i64 %1
  ret ptr %add.ptr
}

; Function Attrs: mustprogress uwtable
define noundef zeroext i1 @_ZN8QuantLib13MultiStepSwap12nextTimeStepERKNS_10CurveStateERSt6vectorImSaImEERS4_IS4_INS_23MarketModelMultiProduct8CashFlowESaIS9_EESaISB_EE(ptr noundef nonnull align 8 dereferenceable(264) %this, ptr noundef nonnull align 8 dereferenceable(64) %currentState, ptr noundef nonnull align 8 dereferenceable(24) %numberCashFlowsThisStep, ptr noundef nonnull align 8 dereferenceable(24) %genCashFlows) unnamed_addr #1 align 2 {
entry:
  %this.addr = alloca ptr, align 8
  %currentState.addr = alloca ptr, align 8
  %numberCashFlowsThisStep.addr = alloca ptr, align 8
  %genCashFlows.addr = alloca ptr, align 8
  %liborRate = alloca double, align 8
  store ptr %this, ptr %this.addr, align 8, !tbaa !3
  store ptr %currentState, ptr %currentState.addr, align 8, !tbaa !3
  store ptr %numberCashFlowsThisStep, ptr %numberCashFlowsThisStep.addr, align 8, !tbaa !3
  store ptr %genCashFlows, ptr %genCashFlows.addr, align 8, !tbaa !3
  %this1 = load ptr, ptr %this.addr, align 8
  call void @llvm.lifetime.start.p0(i64 8, ptr %liborRate) #13
  %0 = load ptr, ptr %currentState.addr, align 8, !tbaa !3
  %currentIndex_ = getelementptr inbounds nuw %"class.QuantLib::MultiStepSwap", ptr %this1, i32 0, i32 7
  %1 = load i64, ptr %currentIndex_, align 8, !tbaa !37
  %vtable = load ptr, ptr %0, align 8, !tbaa !14
  %vfn = getelementptr inbounds ptr, ptr %vtable, i64 3
  %2 = load ptr, ptr %vfn, align 8
  %call = call noundef double %2(ptr noundef nonnull align 8 dereferenceable(64) %0, i64 noundef %1)
  store double %call, ptr %liborRate, align 8, !tbaa !10
  %currentIndex_2 = getelementptr inbounds nuw %"class.QuantLib::MultiStepSwap", ptr %this1, i32 0, i32 7
  %3 = load i64, ptr %currentIndex_2, align 8, !tbaa !37
  %4 = load ptr, ptr %genCashFlows.addr, align 8, !tbaa !3
  %call3 = call noundef nonnull align 8 dereferenceable(24) ptr @_ZNSt6vectorIS_IN8QuantLib23MarketModelMultiProduct8CashFlowESaIS2_EESaIS4_EEixEm(ptr noundef nonnull align 8 dereferenceable(24) %4, i64 noundef 0) #13
  %call4 = call noundef nonnull align 8 dereferenceable(16) ptr @_ZNSt6vectorIN8QuantLib23MarketModelMultiProduct8CashFlowESaIS2_EEixEm(ptr noundef nonnull align 8 dereferenceable(24) %call3, i64 noundef 0) #13
  %timeIndex = getelementptr inbounds nuw %"struct.QuantLib::MarketModelMultiProduct::CashFlow", ptr %call4, i32 0, i32 0
  store i64 %3, ptr %timeIndex, align 8, !tbaa !38
  %multiplier_ = getelementptr inbounds nuw %"class.QuantLib::MultiStepSwap", ptr %this1, i32 0, i32 5
  %5 = load double, ptr %multiplier_, align 8, !tbaa !35
  %fneg = fneg double %5
  %fixedRate_ = getelementptr inbounds nuw %"class.QuantLib::MultiStepSwap", ptr %this1, i32 0, i32 4
  %6 = load double, ptr %fixedRate_, align 8, !tbaa !16
  %mul = fmul double %fneg, %6
  %fixedAccruals_ = getelementptr inbounds nuw %"class.QuantLib::MultiStepSwap", ptr %this1, i32 0, i32 1
  %currentIndex_5 = getelementptr inbounds nuw %"class.QuantLib::MultiStepSwap", ptr %this1, i32 0, i32 7
  %7 = load i64, ptr %currentIndex_5, align 8, !tbaa !37
  %call6 = call noundef nonnull align 8 dereferenceable(8) ptr @_ZNSt6vectorIdSaIdEEixEm(ptr noundef nonnull align 8 dereferenceable(24) %fixedAccruals_, i64 noundef %7) #13
  %8 = load double, ptr %call6, align 8, !tbaa !10
  %mul7 = fmul double %mul, %8
  %9 = load ptr, ptr %genCashFlows.addr, align 8, !tbaa !3
  %call8 = call noundef nonnull align 8 dereferenceable(24) ptr @_ZNSt6vectorIS_IN8QuantLib23MarketModelMultiProduct8CashFlowESaIS2_EESaIS4_EEixEm(ptr noundef nonnull align 8 dereferenceable(24) %9, i64 noundef 0) #13
  %call9 = call noundef nonnull align 8 dereferenceable(16) ptr @_ZNSt6vectorIN8QuantLib23MarketModelMultiProduct8CashFlowESaIS2_EEixEm(ptr noundef nonnull align 8 dereferenceable(24) %call8, i64 noundef 0) #13
  %amount = getelementptr inbounds nuw %"struct.QuantLib::MarketModelMultiProduct::CashFlow", ptr %call9, i32 0, i32 1
  store double %mul7, ptr %amount, align 8, !tbaa !40
  %currentIndex_10 = getelementptr inbounds nuw %"class.QuantLib::MultiStepSwap", ptr %this1, i32 0, i32 7
  %10 = load i64, ptr %currentIndex_10, align 8, !tbaa !37
  %11 = load ptr, ptr %genCashFlows.addr, align 8, !tbaa !3
  %call11 = call noundef nonnull align 8 dereferenceable(24) ptr @_ZNSt6vectorIS_IN8QuantLib23MarketModelMultiProduct8CashFlowESaIS2_EESaIS4_EEixEm(ptr noundef nonnull align 8 dereferenceable(24) %11, i64 noundef 0) #13
  %call12 = call noundef nonnull align 8 dereferenceable(16) ptr @_ZNSt6vectorIN8QuantLib23MarketModelMultiProduct8CashFlowESaIS2_EEixEm(ptr noundef nonnull align 8 dereferenceable(24) %call11, i64 noundef 1) #13
  %timeIndex13 = getelementptr inbounds nuw %"struct.QuantLib::MarketModelMultiProduct::CashFlow", ptr %call12, i32 0, i32 0
  store i64 %10, ptr %timeIndex13, align 8, !tbaa !38
  %multiplier_14 = getelementptr inbounds nuw %"class.QuantLib::MultiStepSwap", ptr %this1, i32 0, i32 5
  %12 = load double, ptr %multiplier_14, align 8, !tbaa !35
  %13 = load double, ptr %liborRate, align 8, !tbaa !10
  %mul15 = fmul double %12, %13
  %floatingAccruals_ = getelementptr inbounds nuw %"class.QuantLib::MultiStepSwap", ptr %this1, i32 0, i32 2
  %currentIndex_16 = getelementptr inbounds nuw %"class.QuantLib::MultiStepSwap", ptr %this1, i32 0, i32 7
  %14 = load i64, ptr %currentIndex_16, align 8, !tbaa !37
  %call17 = call noundef nonnull align 8 dereferenceable(8) ptr @_ZNSt6vectorIdSaIdEEixEm(ptr noundef nonnull align 8 dereferenceable(24) %floatingAccruals_, i64 noundef %14) #13
  %15 = load double, ptr %call17, align 8, !tbaa !10
  %mul18 = fmul double %mul15, %15
  %16 = load ptr, ptr %genCashFlows.addr, align 8, !tbaa !3
  %call19 = call noundef nonnull align 8 dereferenceable(24) ptr @_ZNSt6vectorIS_IN8QuantLib23MarketModelMultiProduct8CashFlowESaIS2_EESaIS4_EEixEm(ptr noundef nonnull align 8 dereferenceable(24) %16, i64 noundef 0) #13
  %call20 = call noundef nonnull align 8 dereferenceable(16) ptr @_ZNSt6vectorIN8QuantLib23MarketModelMultiProduct8CashFlowESaIS2_EEixEm(ptr noundef nonnull align 8 dereferenceable(24) %call19, i64 noundef 1) #13
  %amount21 = getelementptr inbounds nuw %"struct.QuantLib::MarketModelMultiProduct::CashFlow", ptr %call20, i32 0, i32 1
  store double %mul18, ptr %amount21, align 8, !tbaa !40
  %17 = load ptr, ptr %numberCashFlowsThisStep.addr, align 8, !tbaa !3
  %call22 = call noundef nonnull align 8 dereferenceable(8) ptr @_ZNSt6vectorImSaImEEixEm(ptr noundef nonnull align 8 dereferenceable(24) %17, i64 noundef 0) #13
  store i64 2, ptr %call22, align 8, !tbaa !41
  %currentIndex_23 = getelementptr inbounds nuw %"class.QuantLib::MultiStepSwap", ptr %this1, i32 0, i32 7
  %18 = load i64, ptr %currentIndex_23, align 8, !tbaa !37
  %inc = add i64 %18, 1
  store i64 %inc, ptr %currentIndex_23, align 8, !tbaa !37
  %currentIndex_24 = getelementptr inbounds nuw %"class.QuantLib::MultiStepSwap", ptr %this1, i32 0, i32 7
  %19 = load i64, ptr %currentIndex_24, align 8, !tbaa !37
  %lastIndex_ = getelementptr inbounds nuw %"class.QuantLib::MultiStepSwap", ptr %this1, i32 0, i32 6
  %20 = load i64, ptr %lastIndex_, align 8, !tbaa !36
  %cmp = icmp eq i64 %19, %20
  call void @llvm.lifetime.end.p0(i64 8, ptr %liborRate) #13
  ret i1 %cmp
}