; Function Attrs: mustprogress uwtable
define noundef zeroext i1 @_ZN8QuantLib13MultiStepSwap12nextTimeStepERKNS_10CurveStateERSt6vectorImSaImEERS4_IS4_INS_23MarketModelMultiProduct8CashFlowESaIS9_EESaISB_EE(ptr nocapture noundef nonnull align 8 dereferenceable(264) %this, ptr noundef nonnull align 8 dereferenceable(64) %currentState, ptr nocapture noundef nonnull readonly align 8 dereferenceable(24) %numberCashFlowsThisStep, ptr nocapture noundef nonnull readonly align 8 dereferenceable(24) %genCashFlows) unnamed_addr #1 align 2 {
entry:
  %currentIndex_ = getelementptr inbounds nuw i8, ptr %this, i64 256
  %0 = load i64, ptr %currentIndex_, align 8, !tbaa !38
  %vtable = load ptr, ptr %currentState, align 8, !tbaa !12
  %vfn = getelementptr inbounds i8, ptr %vtable, i64 24
  %1 = load ptr, ptr %vfn, align 8
  %call = tail call noundef double %1(ptr noundef nonnull align 8 dereferenceable(64) %currentState, i64 noundef %0)
  %2 = load i64, ptr %currentIndex_, align 8, !tbaa !38
  %3 = load ptr, ptr %genCashFlows, align 8, !tbaa !39
  %4 = load ptr, ptr %3, align 8, !tbaa !41
  store i64 %2, ptr %4, align 8, !tbaa !43
  %multiplier_ = getelementptr inbounds nuw i8, ptr %this, i64 240
  %5 = load double, ptr %multiplier_, align 8, !tbaa !32
  %fneg = fneg double %5
  %fixedRate_ = getelementptr inbounds nuw i8, ptr %this, i64 232
  %6 = load double, ptr %fixedRate_, align 8, !tbaa !14
  %mul = fmul double %6, %fneg
  %fixedAccruals_ = getelementptr inbounds nuw i8, ptr %this, i64 160
  %7 = load ptr, ptr %fixedAccruals_, align 8, !tbaa !10
  %add.ptr.i = getelementptr inbounds nuw double, ptr %7, i64 %2
  %8 = load double, ptr %add.ptr.i, align 8, !tbaa !45
  %mul7 = fmul double %mul, %8
  %amount = getelementptr inbounds nuw i8, ptr %4, i64 8
  store double %mul7, ptr %amount, align 8, !tbaa !46
  %add.ptr.i7 = getelementptr inbounds nuw i8, ptr %4, i64 16
  store i64 %2, ptr %add.ptr.i7, align 8, !tbaa !43
  %mul15 = fmul double %call, %5
  %floatingAccruals_ = getelementptr inbounds nuw i8, ptr %this, i64 184
  %9 = load ptr, ptr %floatingAccruals_, align 8, !tbaa !10
  %add.ptr.i8 = getelementptr inbounds nuw double, ptr %9, i64 %2
  %10 = load double, ptr %add.ptr.i8, align 8, !tbaa !45
  %mul18 = fmul double %mul15, %10
  %amount21 = getelementptr inbounds nuw i8, ptr %4, i64 24
  store double %mul18, ptr %amount21, align 8, !tbaa !46
  %11 = load ptr, ptr %numberCashFlowsThisStep, align 8, !tbaa !34
  store i64 2, ptr %11, align 8, !tbaa !47
  %12 = load i64, ptr %currentIndex_, align 8, !tbaa !38
  %inc = add i64 %12, 1
  store i64 %inc, ptr %currentIndex_, align 8, !tbaa !38
  %lastIndex_ = getelementptr inbounds nuw i8, ptr %this, i64 248
  %13 = load i64, ptr %lastIndex_, align 8, !tbaa !33
  %cmp = icmp eq i64 %inc, %13
  ret i1 %cmp
}